; Function Attrs: null_pointer_is_valid sspstrong uwtable
define internal i32 @fixedarray_budb_dissect_charListT_charListT_val(ptr noundef %0, i32 noundef %1, ptr noundef %2, ptr noundef %3, ptr noundef %4, ptr noundef %5) #0 {
  br label %7

7:                                                ; preds = %6, %7
  %.09 = phi i32 [ 1024, %6 ], [ %8, %7 ]
  %.078 = phi i32 [ %1, %6 ], [ %10, %7 ]
  %8 = add nsw i32 %.09, -1
  %9 = load i32, ptr @hf_budb_charListT_charListT_val, align 4
  %10 = tail call i32 @dissect_ndr_uint8(ptr noundef %0, i32 noundef %.078, ptr noundef %2, ptr noundef %3, ptr noundef %4, ptr noundef %5, i32 noundef %9, ptr noundef null)
  %.not = icmp eq i32 %8, 0
  br i1 %.not, label %11, label %7, !llvm.loop !10

11:                                               ; preds = %7
  ret i32 %10
}